target datalayout = "e-m:e-p270:32:32-p271:32:32-p272:64:64-i64:64-i128:128-f80:128-n8:16:32:64-S128"
target triple = "x86_64-pc-linux-gnu"

%struct.XLogRecordBuffer = type { i64, i64, ptr }
%struct.LogicalDecodingContext = type { ptr, ptr, ptr, ptr, ptr, i8, %struct.OutputPluginCallbacks, %struct.OutputPluginOptions, ptr, ptr, ptr, ptr, ptr, ptr, ptr, i8, i8, i8, i8, i8, i64, i32, i8, i8 }
%struct.OutputPluginCallbacks = type { ptr, ptr, ptr, ptr, ptr, ptr, ptr, ptr, ptr, ptr, ptr, ptr, ptr, ptr, ptr, ptr, ptr, ptr, ptr, ptr, ptr }
%struct.OutputPluginOptions = type { i32, i8 }
%struct.XLogReaderState = type { %struct.XLogReaderRoutine, i64, ptr, i64, i64, i64, i64, i64, i64, i64, i64, ptr, ptr, i64, i8, ptr, ptr, ptr, ptr, ptr, i32, %struct.WALSegmentContext, %struct.WALOpenSegment, i32, i64, i32, i64, i32, i64, i32, ptr, i32, ptr, i8, i8 }
%struct.XLogReaderRoutine = type { ptr, ptr, ptr }
%struct.WALSegmentContext = type { [1024 x i8], i32 }
%struct.WALOpenSegment = type { i32, i64, i32 }
%struct.DecodedXLogRecord = type { i64, i8, ptr, i64, i64, %struct.XLogRecord, i16, i32, ptr, i32, i32, [0 x %struct.DecodedBkpBlock] }
%struct.XLogRecord = type { i32, i32, i64, i8, i8, i32 }
%struct.DecodedBkpBlock = type { i8, %struct.RelFileLocator, i32, i32, i32, i8, i8, i8, ptr, i16, i16, i16, i8, i8, ptr, i16, i16 }
%struct.RelFileLocator = type { i32, i32, i32 }
%struct.ReplicationSlot = type { i8, i8, i32, i8, i8, i32, i32, %struct.ReplicationSlotPersistentData, %struct.LWLock, %struct.ConditionVariable, i32, i64, i64, i64, i64, i64 }
%struct.ReplicationSlotPersistentData = type { %struct.nameData, i32, i32, i32, i32, i64, i32, i64, i64, i8, %struct.nameData, i8, i8 }
%struct.nameData = type { [64 x i8] }
%struct.LWLock = type { i16, %struct.pg_atomic_uint32, %struct.proclist_head }
%struct.pg_atomic_uint32 = type { i32 }
%struct.proclist_head = type { i32, i32 }
%struct.ConditionVariable = type { i8, %struct.proclist_head }
%struct.ReorderBufferChange = type { i64, i32, ptr, i16, %union.anon, %struct.dlist_node }
%union.anon = type { %struct.anon }
%struct.anon = type { %struct.RelFileLocator, i8, ptr, ptr }
%struct.dlist_node = type { ptr, ptr }
%struct.HeapTupleData = type { i32, %struct.ItemPointerData, i32, ptr }
%struct.ItemPointerData = type { %struct.BlockIdData, i16 }
%struct.BlockIdData = type { i16, i16 }
%struct.HeapTupleHeaderData = type { %union.anon.4, %struct.ItemPointerData, i16, i16, i8, [0 x i8] }
%union.anon.4 = type { %struct.HeapTupleFields }
%struct.HeapTupleFields = type { i32, i32, %union.anon.5 }
%union.anon.5 = type { i32 }
%struct.xl_heap_delete = type { i32, i16, i8, i8 }
%struct.xl_heap_header = type { i16, i16, i8 }

; Function Attrs: inlinehint nounwind uwtable
define internal void @BlockIdSet(ptr noundef %0, i32 noundef %1) #3 {
  %3 = alloca ptr, align 8
  %4 = alloca i32, align 4
  store ptr %0, ptr %3, align 8
  store i32 %1, ptr %4, align 4
  %5 = load i32, ptr %4, align 4
  %6 = lshr i32 %5, 16
  %7 = trunc i32 %6 to i16
  %8 = load ptr, ptr %3, align 8
  %9 = getelementptr inbounds nuw %struct.BlockIdData, ptr %8, i32 0, i32 0
  store i16 %7, ptr %9, align 2
  %10 = load i32, ptr %4, align 4
  %11 = and i32 %10, 65535
  %12 = trunc i32 %11 to i16
  %13 = load ptr, ptr %3, align 8
  %14 = getelementptr inbounds nuw %struct.BlockIdData, ptr %13, i32 0, i32 1
  store i16 %12, ptr %14, align 2
  ret void
}

; Function Attrs: inlinehint nounwind uwtable
define internal void @ItemPointerSetInvalid(ptr noundef %0) #3 {
  %2 = alloca ptr, align 8
  store ptr %0, ptr %2, align 8
  %3 = load ptr, ptr %2, align 8
  %4 = getelementptr inbounds nuw %struct.ItemPointerData, ptr %3, i32 0, i32 0
  call void @BlockIdSet(ptr noundef %4, i32 noundef -1)
  %5 = load ptr, ptr %2, align 8
  %6 = getelementptr inbounds nuw %struct.ItemPointerData, ptr %5, i32 0, i32 1
  store i16 0, ptr %6, align 2
  ret void
}

; Function Attrs: nounwind uwtable
define internal void @DecodeXLogTuple(ptr noundef %0, i64 noundef %1, ptr noundef %2) #0 {
  %4 = alloca ptr, align 8
  %5 = alloca i64, align 8
  %6 = alloca ptr, align 8
  %7 = alloca %struct.xl_heap_header, align 2
  %8 = alloca i32, align 4
  %9 = alloca ptr, align 8
  store ptr %0, ptr %4, align 8
  store i64 %1, ptr %5, align 8
  store ptr %2, ptr %6, align 8
  call void @llvm.lifetime.start.p0(i64 6, ptr %7) #8
  call void @llvm.lifetime.start.p0(i64 4, ptr %8) #8
  %10 = load i64, ptr %5, align 8
  %11 = sub i64 %10, 5
  %12 = trunc i64 %11 to i32
  store i32 %12, ptr %8, align 4
  call void @llvm.lifetime.start.p0(i64 8, ptr %9) #8
  %13 = load i32, ptr %8, align 4
  %14 = sext i32 %13 to i64
  %15 = add i64 %14, 23
  %16 = trunc i64 %15 to i32
  %17 = load ptr, ptr %6, align 8
  %18 = getelementptr inbounds nuw %struct.HeapTupleData, ptr %17, i32 0, i32 0
  store i32 %16, ptr %18, align 8
  %19 = load ptr, ptr %6, align 8
  %20 = getelementptr inbounds nuw %struct.HeapTupleData, ptr %19, i32 0, i32 3
  %21 = load ptr, ptr %20, align 8
  store ptr %21, ptr %9, align 8
  %22 = load ptr, ptr %6, align 8
  %23 = getelementptr inbounds nuw %struct.HeapTupleData, ptr %22, i32 0, i32 1
  call void @ItemPointerSetInvalid(ptr noundef %23)
  %24 = load ptr, ptr %6, align 8
  %25 = getelementptr inbounds nuw %struct.HeapTupleData, ptr %24, i32 0, i32 2
  store i32 0, ptr %25, align 4
  %26 = load ptr, ptr %4, align 8
  call void @llvm.memcpy.p0.p0.i64(ptr align 2 %7, ptr align 1 %26, i64 5, i1 false)
  %27 = load ptr, ptr %9, align 8
  call void @llvm.memset.p0.i64(ptr align 4 %27, i8 0, i64 23, i1 false)
  %28 = load ptr, ptr %6, align 8
  %29 = getelementptr inbounds nuw %struct.HeapTupleData, ptr %28, i32 0, i32 3
  %30 = load ptr, ptr %29, align 8
  %31 = getelementptr inbounds nuw i8, ptr %30, i64 23
  %32 = load ptr, ptr %4, align 8
  %33 = getelementptr inbounds nuw i8, ptr %32, i64 5
  %34 = load i32, ptr %8, align 4
  %35 = sext i32 %34 to i64
  call void @llvm.memcpy.p0.p0.i64(ptr align 1 %31, ptr align 1 %33, i64 %35, i1 false)
  %36 = getelementptr inbounds nuw %struct.xl_heap_header, ptr %7, i32 0, i32 1
  %37 = load i16, ptr %36, align 2
  %38 = load ptr, ptr %9, align 8
  %39 = getelementptr inbounds nuw %struct.HeapTupleHeaderData, ptr %38, i32 0, i32 3
  store i16 %37, ptr %39, align 4
  %40 = getelementptr inbounds nuw %struct.xl_heap_header, ptr %7, i32 0, i32 0
  %41 = load i16, ptr %40, align 2
  %42 = load ptr, ptr %9, align 8
  %43 = getelementptr inbounds nuw %struct.HeapTupleHeaderData, ptr %42, i32 0, i32 2
  store i16 %41, ptr %43, align 2
  %44 = getelementptr inbounds nuw %struct.xl_heap_header, ptr %7, i32 0, i32 2
  %45 = load i8, ptr %44, align 2
  %46 = load ptr, ptr %9, align 8
  %47 = getelementptr inbounds nuw %struct.HeapTupleHeaderData, ptr %46, i32 0, i32 4
  store i8 %45, ptr %47, align 2
  call void @llvm.lifetime.end.p0(i64 8, ptr %9) #8
  call void @llvm.lifetime.end.p0(i64 4, ptr %8) #8
  call void @llvm.lifetime.end.p0(i64 6, ptr %7) #8
  ret void
}

; Function Attrs: inlinehint nounwind uwtable
define internal zeroext i1 @FilterByOrigin(ptr noundef %0, i16 noundef zeroext %1) #3 {
  %3 = alloca i1, align 1
  %4 = alloca ptr, align 8
  %5 = alloca i16, align 2
  store ptr %0, ptr %4, align 8
  store i16 %1, ptr %5, align 2
  %6 = load ptr, ptr %4, align 8
  %7 = getelementptr inbounds nuw %struct.LogicalDecodingContext, ptr %6, i32 0, i32 6
  %8 = getelementptr inbounds nuw %struct.OutputPluginCallbacks, ptr %7, i32 0, i32 6
  %9 = load ptr, ptr %8, align 8
  %10 = icmp eq ptr %9, null
  br i1 %10, label %11, label %12

11:                                               ; preds = %2
  store i1 false, ptr %3, align 1
  br label %16

12:                                               ; preds = %2
  %13 = load ptr, ptr %4, align 8
  %14 = load i16, ptr %5, align 2
  %15 = call zeroext i1 @filter_by_origin_cb_wrapper(ptr noundef %13, i16 noundef zeroext %14)
  store i1 %15, ptr %3, align 1
  br label %16

16:                                               ; preds = %12, %11
  %17 = load i1, ptr %3, align 1
  ret i1 %17
}

; Function Attrs: nounwind uwtable
define internal void @DecodeDelete(ptr noundef %0, ptr noundef %1) #0 {
  %3 = alloca ptr, align 8
  %4 = alloca ptr, align 8
  %5 = alloca ptr, align 8
  %6 = alloca ptr, align 8
  %7 = alloca ptr, align 8
  %8 = alloca %struct.RelFileLocator, align 4
  %9 = alloca i32, align 4
  %10 = alloca i64, align 8
  %11 = alloca i64, align 8
  store ptr %0, ptr %3, align 8
  store ptr %1, ptr %4, align 8
  call void @llvm.lifetime.start.p0(i64 8, ptr %5) #8
  %12 = load ptr, ptr %4, align 8
  %13 = getelementptr inbounds nuw %struct.XLogRecordBuffer, ptr %12, i32 0, i32 2
  %14 = load ptr, ptr %13, align 8
  store ptr %14, ptr %5, align 8
  call void @llvm.lifetime.start.p0(i64 8, ptr %6) #8
  call void @llvm.lifetime.start.p0(i64 8, ptr %7) #8
  call void @llvm.lifetime.start.p0(i64 12, ptr %8) #8
  %15 = load ptr, ptr %5, align 8
  %16 = getelementptr inbounds nuw %struct.XLogReaderState, ptr %15, i32 0, i32 11
  %17 = load ptr, ptr %16, align 8
  %18 = getelementptr inbounds nuw %struct.DecodedXLogRecord, ptr %17, i32 0, i32 8
  %19 = load ptr, ptr %18, align 8
  store ptr %19, ptr %6, align 8
  %20 = load ptr, ptr %5, align 8
  call void @XLogRecGetBlockTag(ptr noundef %20, i8 noundef zeroext 0, ptr noundef %8, ptr noundef null, ptr noundef null)
  %21 = getelementptr inbounds nuw %struct.RelFileLocator, ptr %8, i32 0, i32 1
  %22 = load i32, ptr %21, align 4
  %23 = load ptr, ptr %3, align 8
  %24 = getelementptr inbounds nuw %struct.LogicalDecodingContext, ptr %23, i32 0, i32 1
  %25 = load ptr, ptr %24, align 8
  %26 = getelementptr inbounds nuw %struct.ReplicationSlot, ptr %25, i32 0, i32 7
  %27 = getelementptr inbounds nuw %struct.ReplicationSlotPersistentData, ptr %26, i32 0, i32 1
  %28 = load i32, ptr %27, align 8
  %29 = icmp ne i32 %22, %28
  br i1 %29, label %30, label %31

30:                                               ; preds = %2
  store i32 1, ptr %9, align 4
  br label %116

31:                                               ; preds = %2
  %32 = load ptr, ptr %3, align 8
  %33 = load ptr, ptr %5, align 8
  %34 = getelementptr inbounds nuw %struct.XLogReaderState, ptr %33, i32 0, i32 11
  %35 = load ptr, ptr %34, align 8
  %36 = getelementptr inbounds nuw %struct.DecodedXLogRecord, ptr %35, i32 0, i32 6
  %37 = load i16, ptr %36, align 8
  %38 = call zeroext i1 @FilterByOrigin(ptr noundef %32, i16 noundef zeroext %37)
  br i1 %38, label %39, label %40

39:                                               ; preds = %31
  store i32 1, ptr %9, align 4
  br label %116

40:                                               ; preds = %31
  %41 = load ptr, ptr %3, align 8
  %42 = getelementptr inbounds nuw %struct.LogicalDecodingContext, ptr %41, i32 0, i32 3
  %43 = load ptr, ptr %42, align 8
  %44 = call ptr @ReorderBufferGetChange(ptr noundef %43)
  store ptr %44, ptr %7, align 8
  %45 = load ptr, ptr %6, align 8
  %46 = getelementptr inbounds nuw %struct.xl_heap_delete, ptr %45, i32 0, i32 3
  %47 = load i8, ptr %46, align 1
  %48 = zext i8 %47 to i32
  %49 = and i32 %48, 8
  %50 = icmp ne i32 %49, 0
  br i1 %50, label %51, label %54

51:                                               ; preds = %40
  %52 = load ptr, ptr %7, align 8
  %53 = getelementptr inbounds nuw %struct.ReorderBufferChange, ptr %52, i32 0, i32 1
  store i32 10, ptr %53, align 8
  br label %57

54:                                               ; preds = %40
  %55 = load ptr, ptr %7, align 8
  %56 = getelementptr inbounds nuw %struct.ReorderBufferChange, ptr %55, i32 0, i32 1
  store i32 2, ptr %56, align 8
  br label %57

57:                                               ; preds = %54, %51
  %58 = load ptr, ptr %5, align 8
  %59 = getelementptr inbounds nuw %struct.XLogReaderState, ptr %58, i32 0, i32 11
  %60 = load ptr, ptr %59, align 8
  %61 = getelementptr inbounds nuw %struct.DecodedXLogRecord, ptr %60, i32 0, i32 6
  %62 = load i16, ptr %61, align 8
  %63 = load ptr, ptr %7, align 8
  %64 = getelementptr inbounds nuw %struct.ReorderBufferChange, ptr %63, i32 0, i32 3
  store i16 %62, ptr %64, align 8
  %65 = load ptr, ptr %7, align 8
  %66 = getelementptr inbounds nuw %struct.ReorderBufferChange, ptr %65, i32 0, i32 4
  %67 = getelementptr inbounds nuw %struct.anon, ptr %66, i32 0, i32 0
  call void @llvm.memcpy.p0.p0.i64(ptr align 8 %67, ptr align 4 %8, i64 12, i1 false)
  %68 = load ptr, ptr %6, align 8
  %69 = getelementptr inbounds nuw %struct.xl_heap_delete, ptr %68, i32 0, i32 3
  %70 = load i8, ptr %69, align 1
  %71 = zext i8 %70 to i32
  %72 = and i32 %71, 6
  %73 = icmp ne i32 %72, 0
  br i1 %73, label %74, label %99

74:                                               ; preds = %57
  call void @llvm.lifetime.start.p0(i64 8, ptr %10) #8
  %75 = load ptr, ptr %5, align 8
  %76 = getelementptr inbounds nuw %struct.XLogReaderState, ptr %75, i32 0, i32 11
  %77 = load ptr, ptr %76, align 8
  %78 = getelementptr inbounds nuw %struct.DecodedXLogRecord, ptr %77, i32 0, i32 9
  %79 = load i32, ptr %78, align 8
  %80 = zext i32 %79 to i64
  %81 = sub i64 %80, 8
  store i64 %81, ptr %10, align 8
  call void @llvm.lifetime.start.p0(i64 8, ptr %11) #8
  %82 = load i64, ptr %10, align 8
  %83 = sub i64 %82, 5
  store i64 %83, ptr %11, align 8
  %84 = load ptr, ptr %3, align 8
  %85 = getelementptr inbounds nuw %struct.LogicalDecodingContext, ptr %84, i32 0, i32 3
  %86 = load ptr, ptr %85, align 8
  %87 = load i64, ptr %11, align 8
  %88 = call ptr @ReorderBufferGetTupleBuf(ptr noundef %86, i64 noundef %87)
  %89 = load ptr, ptr %7, align 8
  %90 = getelementptr inbounds nuw %struct.ReorderBufferChange, ptr %89, i32 0, i32 4
  %91 = getelementptr inbounds nuw %struct.anon, ptr %90, i32 0, i32 2
  store ptr %88, ptr %91, align 8
  %92 = load ptr, ptr %6, align 8
  %93 = getelementptr inbounds nuw i8, ptr %92, i64 8
  %94 = load i64, ptr %10, align 8
  %95 = load ptr, ptr %7, align 8
  %96 = getelementptr inbounds nuw %struct.ReorderBufferChange, ptr %95, i32 0, i32 4
  %97 = getelementptr inbounds nuw %struct.anon, ptr %96, i32 0, i32 2
  %98 = load ptr, ptr %97, align 8
  call void @DecodeXLogTuple(ptr noundef %93, i64 noundef %94, ptr noundef %98)
  call void @llvm.lifetime.end.p0(i64 8, ptr %11) #8
  call void @llvm.lifetime.end.p0(i64 8, ptr %10) #8
  br label %99

99:                                               ; preds = %74, %57
  %100 = load ptr, ptr %7, align 8
  %101 = getelementptr inbounds nuw %struct.ReorderBufferChange, ptr %100, i32 0, i32 4
  %102 = getelementptr inbounds nuw %struct.anon, ptr %101, i32 0, i32 1
  store i8 1, ptr %102, align 4
  %103 = load ptr, ptr %3, align 8
  %104 = getelementptr inbounds nuw %struct.LogicalDecodingContext, ptr %103, i32 0, i32 3
  %105 = load ptr, ptr %104, align 8
  %106 = load ptr, ptr %5, align 8
  %107 = getelementptr inbounds nuw %struct.XLogReaderState, ptr %106, i32 0, i32 11
  %108 = load ptr, ptr %107, align 8
  %109 = getelementptr inbounds nuw %struct.DecodedXLogRecord, ptr %108, i32 0, i32 5
  %110 = getelementptr inbounds nuw %struct.XLogRecord, ptr %109, i32 0, i32 1
  %111 = load i32, ptr %110, align 4
  %112 = load ptr, ptr %4, align 8
  %113 = getelementptr inbounds nuw %struct.XLogRecordBuffer, ptr %112, i32 0, i32 0
  %114 = load i64, ptr %113, align 8
  %115 = load ptr, ptr %7, align 8
  call void @ReorderBufferQueueChange(ptr noundef %105, i32 noundef %111, i64 noundef %114, ptr noundef %115, i1 noundef zeroext false)
  store i32 0, ptr %9, align 4
  br label %116

116:                                              ; preds = %99, %39, %30
  call void @llvm.lifetime.end.p0(i64 12, ptr %8) #8
  call void @llvm.lifetime.end.p0(i64 8, ptr %7) #8
  call void @llvm.lifetime.end.p0(i64 8, ptr %6) #8
  call void @llvm.lifetime.end.p0(i64 8, ptr %5) #8
  %117 = load i32, ptr %9, align 4
  switch i32 %117, label %119 [
    i32 0, label %118
    i32 1, label %118
  ]

118:                                              ; preds = %116, %116
  ret void

119:                                              ; preds = %116
  unreachable
}