; Function Attrs: nounwind uwtable
define internal fastcc void @DecodeDelete(ptr noundef %0, ptr noundef readonly captures(none) %1) unnamed_addr #0 {
  %3 = alloca %struct.RelFileLocator, align 4
  %4 = getelementptr inbounds nuw i8, ptr %1, i64 16
  %5 = load ptr, ptr %4, align 8
  call void @llvm.lifetime.start.p0(i64 12, ptr nonnull %3) #7
  %6 = getelementptr inbounds nuw i8, ptr %5, i64 104
  %7 = load ptr, ptr %6, align 8
  %8 = getelementptr inbounds nuw i8, ptr %7, i64 72
  %9 = load ptr, ptr %8, align 8
  call void @XLogRecGetBlockTag(ptr noundef %5, i8 noundef zeroext 0, ptr noundef nonnull %3, ptr noundef null, ptr noundef null) #7
  %10 = getelementptr inbounds nuw i8, ptr %3, i64 4
  %11 = load i32, ptr %10, align 4
  %12 = getelementptr inbounds nuw i8, ptr %0, i64 8
  %13 = load ptr, ptr %12, align 8
  %14 = getelementptr inbounds nuw i8, ptr %13, i64 88
  %15 = load i32, ptr %14, align 8
  %.not = icmp eq i32 %11, %15
  br i1 %.not, label %16, label %71

16:                                               ; preds = %2
  %17 = getelementptr inbounds nuw i8, ptr %0, i64 96
  %18 = load ptr, ptr %17, align 8
  %19 = icmp eq ptr %18, null
  br i1 %19, label %FilterByOrigin.exit.thread, label %FilterByOrigin.exit

FilterByOrigin.exit:                              ; preds = %16
  %20 = load ptr, ptr %6, align 8
  %21 = getelementptr inbounds nuw i8, ptr %20, i64 64
  %22 = load i16, ptr %21, align 8
  %23 = call zeroext i1 @filter_by_origin_cb_wrapper(ptr noundef nonnull %0, i16 noundef zeroext %22) #7
  br i1 %23, label %71, label %FilterByOrigin.exit.thread

FilterByOrigin.exit.thread:                       ; preds = %16, %FilterByOrigin.exit
  %24 = getelementptr inbounds nuw i8, ptr %0, i64 24
  %25 = load ptr, ptr %24, align 8
  %26 = call ptr @ReorderBufferGetChange(ptr noundef %25) #7
  %27 = getelementptr inbounds nuw i8, ptr %9, i64 7
  %28 = load i8, ptr %27, align 1
  %29 = and i8 %28, 8
  %.not26 = icmp eq i8 %29, 0
  %spec.select = select i1 %.not26, i32 2, i32 10
  %30 = getelementptr inbounds nuw i8, ptr %26, i64 8
  store i32 %spec.select, ptr %30, align 8
  %31 = load ptr, ptr %6, align 8
  %32 = getelementptr inbounds nuw i8, ptr %31, i64 64
  %33 = load i16, ptr %32, align 8
  %34 = getelementptr inbounds nuw i8, ptr %26, i64 24
  store i16 %33, ptr %34, align 8
  %35 = getelementptr inbounds nuw i8, ptr %26, i64 32
  call void @llvm.memcpy.p0.p0.i64(ptr noundef nonnull align 8 dereferenceable(12) %35, ptr noundef nonnull align 4 dereferenceable(12) %3, i64 12, i1 false)
  %36 = load i8, ptr %27, align 1
  %37 = and i8 %36, 6
  %.not27 = icmp eq i8 %37, 0
  br i1 %.not27, label %64, label %38

38:                                               ; preds = %FilterByOrigin.exit.thread
  %39 = load ptr, ptr %6, align 8
  %40 = getelementptr inbounds nuw i8, ptr %39, i64 80
  %41 = load i32, ptr %40, align 8
  %42 = zext i32 %41 to i64
  %43 = add nsw i64 %42, -13
  %44 = load ptr, ptr %24, align 8
  %45 = call ptr @ReorderBufferGetTupleBuf(ptr noundef %44, i64 noundef %43) #7
  %46 = getelementptr inbounds nuw i8, ptr %26, i64 48
  store ptr %45, ptr %46, align 8
  %47 = getelementptr inbounds nuw i8, ptr %9, i64 8
  %48 = shl nuw i64 %42, 32
  %sext.i = add i64 %48, -55834574848
  %49 = ashr exact i64 %sext.i, 32
  %50 = trunc nsw i64 %49 to i32
  %51 = add i32 %50, 23
  store i32 %51, ptr %45, align 8
  %52 = getelementptr inbounds nuw i8, ptr %45, i64 16
  %53 = load ptr, ptr %52, align 8
  %54 = getelementptr inbounds nuw i8, ptr %45, i64 4
  store i16 -1, ptr %54, align 2
  %55 = getelementptr inbounds nuw i8, ptr %45, i64 6
  store i16 -1, ptr %55, align 2
  %56 = getelementptr inbounds nuw i8, ptr %45, i64 8
  store i16 0, ptr %56, align 2
  %57 = getelementptr inbounds nuw i8, ptr %45, i64 12
  store i32 0, ptr %57, align 4
  %.sroa.0.0.copyload.i = load i16, ptr %47, align 1
  %.sroa.4.0..sroa_idx.i = getelementptr inbounds nuw i8, ptr %9, i64 10
  %.sroa.4.0.copyload.i = load i16, ptr %.sroa.4.0..sroa_idx.i, align 1
  %.sroa.5.0..sroa_idx.i = getelementptr inbounds nuw i8, ptr %9, i64 12
  %.sroa.5.0.copyload.i = load i8, ptr %.sroa.5.0..sroa_idx.i, align 1
  call void @llvm.memset.p0.i64(ptr noundef nonnull align 4 dereferenceable(23) %53, i8 0, i64 23, i1 false)
  %58 = load ptr, ptr %52, align 8
  %59 = getelementptr inbounds nuw i8, ptr %58, i64 23
  %60 = getelementptr inbounds nuw i8, ptr %9, i64 13
  call void @llvm.memcpy.p0.p0.i64(ptr nonnull align 1 %59, ptr nonnull readonly align 1 %60, i64 %49, i1 false)
  %61 = getelementptr inbounds nuw i8, ptr %53, i64 20
  store i16 %.sroa.4.0.copyload.i, ptr %61, align 4
  %62 = getelementptr inbounds nuw i8, ptr %53, i64 18
  store i16 %.sroa.0.0.copyload.i, ptr %62, align 2
  %63 = getelementptr inbounds nuw i8, ptr %53, i64 22
  store i8 %.sroa.5.0.copyload.i, ptr %63, align 2
  br label %64

64:                                               ; preds = %38, %FilterByOrigin.exit.thread
  %65 = getelementptr inbounds nuw i8, ptr %26, i64 44
  store i8 1, ptr %65, align 4
  %66 = load ptr, ptr %24, align 8
  %67 = load ptr, ptr %6, align 8
  %68 = getelementptr inbounds nuw i8, ptr %67, i64 44
  %69 = load i32, ptr %68, align 4
  %70 = load i64, ptr %1, align 8
  call void @ReorderBufferQueueChange(ptr noundef %66, i32 noundef %69, i64 noundef %70, ptr noundef nonnull %26, i1 noundef zeroext false) #7
  br label %71

71:                                               ; preds = %FilterByOrigin.exit, %2, %64
  call void @llvm.lifetime.end.p0(i64 12, ptr nonnull %3) #7
  ret void
}